Certificate:
    Data:
        Version: 3 (0x2)
        Serial Number: 2 (0x2)
    Signature Algorithm: sha256WithRSAEncryption
        Issuer: C=BR, ST=SP, L=SaoPaulo, O=arcsvpn, OU=MyOrganizationalUnit, CN=arcsvpn.cloudapp.net/name=EasyRSA/emailAddress=me@myhost.mydomain
        Validity
            Not Before: Nov 10 03:56:16 2013 GMT
            Not After : Nov  8 03:56:16 2023 GMT
        Subject: C=BR, ST=SP, L=SaoPaulo, O=arcsvpn, OU=MyOrganizationalUnit, CN=arcsvpn.cloudapp.net/name=EasyRSA/emailAddress=me@myhost.mydomain
        Subject Public Key Info:
            Public Key Algorithm: rsaEncryption
                Public-Key: (2048 bit)
                Modulus:
                    00:de:1f:84:91:73:c7:f6:9c:cc:c0:d5:99:59:25:
                    86:47:8e:f7:d0:3b:92:85:01:19:f7:c4:83:2e:9e:
                    00:84:b0:59:f7:bb:2d:27:b8:46:17:a5:4e:bc:80:
                    19:88:83:49:f7:fe:31:ec:c4:e2:e5:50:a8:e5:c8:
                    6f:2b:8d:54:fc:2b:f3:a1:a1:0c:a7:e6:ee:bf:32:
                    5f:13:34:d4:b7:9d:68:f7:4c:47:96:d3:88:43:9c:
                    2c:20:81:db:38:69:6b:f1:1e:4a:23:74:4f:5b:d2:
                    d0:46:37:d8:2a:a1:7c:2e:da:d1:54:b2:c6:ff:17:
                    e1:bf:ab:ab:1e:d0:4e:a6:24:88:4d:56:c0:56:df:
                    0b:79:d9:12:eb:06:53:1f:aa:a6:85:ad:38:d4:be:
                    39:35:d7:e2:0c:f1:a4:46:e9:09:d5:43:c5:ad:6b:
                    5a:c8:8a:97:e3:66:45:c2:ca:42:5a:70:cb:71:6b:
                    af:64:1e:30:8b:f0:e7:f6:55:dc:66:db:7a:2a:bd:
                    62:38:85:75:3a:c1:c7:03:20:b2:63:9d:08:6c:5b:
                    4a:18:08:1d:55:4d:37:8f:49:9b:b3:d7:95:64:67:
                    1a:41:30:fe:5d:bb:c6:81:5d:d5:27:b6:3a:eb:9a:
                    f8:b4:2b:1d:e8:c5:b1:24:82:b0:c1:e8:47:dd:d9:
                    86:af
                Exponent: 65537 (0x10001)
        X509v3 extensions:
            X509v3 Basic Constraints: 
                CA:FALSE
            Netscape Cert Type: 
                SSL Server
            Netscape Comment: 
                Easy-RSA Generated Server Certificate
            X509v3 Subject Key Identifier: 
                6C:B5:2B:E2:14:6B:30:68:72:1C:99:95:20:27:76:38:97:C6:89:09
            X509v3 Authority Key Identifier: 
                keyid:1D:FB:A0:C9:15:CF:5C:87:36:61:85:11:D8:E3:E3:56:14:98:5B:B2
                DirName:/C=BR/ST=SP/L=SaoPaulo/O=arcsvpn/OU=MyOrganizationalUnit/CN=arcsvpn.cloudapp.net/name=EasyRSA/emailAddress=me@myhost.mydomain
                serial:A9:BB:55:85:F8:9D:6E:47

            X509v3 Extended Key Usage: 
                TLS Web Server Authentication
            X509v3 Key Usage: 
                Digital Signature, Key Encipherment
    Signature Algorithm: sha256WithRSAEncryption
         58:e8:02:f1:7f:7c:55:e3:fd:5d:57:4c:ab:e4:be:be:9d:71:
         c5:2e:19:49:87:a1:ef:f5:d0:31:86:f8:28:ee:22:53:be:0b:
         21:d3:52:6b:e2:3e:e0:d5:2d:39:9a:5a:ff:d4:1a:a4:9d:9f:
         c4:47:b0:3b:1a:00:1f:5a:89:8c:f5:89:60:9f:2d:26:26:aa:
         dd:a1:13:32:a6:73:f5:63:1b:21:0d:3d:c8:24:ad:05:89:ca:
         2f:24:b0:71:47:cf:fe:4b:cd:bb:49:b7:ec:7d:fd:84:18:58:
         2d:69:c4:3a:45:1c:e2:d9:ab:1b:5d:c1:37:4c:41:53:71:68:
         4a:fc:bc:b1:fe:7f:f1:07:35:47:66:cb:c5:ec:c8:ba:7b:40:
         82:7e:99:69:18:98:9a:70:22:9a:8a:f1:a9:91:b4:f1:f7:67:
         14:57:2e:bb:ae:eb:91:d6:b9:a3:78:cc:d7:b7:7d:74:28:fc:
         ab:2f:2c:1a:7e:d8:78:13:96:f6:67:7a:15:a6:01:a2:e8:a0:
         e4:ac:a5:43:a8:01:69:b3:f5:8d:20:57:a6:38:9b:30:ca:16:
         74:88:49:ec:25:db:ff:86:d4:f3:00:1b:31:f5:5b:7a:98:c9:
         81:fa:e0:21:3c:7a:46:35:41:42:2f:80:a5:42:b3:bc:38:d9:
         04:fc:8c:7d
-----BEGIN CERTIFICATE-----
MIIFZjCCBE6gAwIBAgIBAjANBgkqhkiG9w0BAQsFADCBsjELMAkGA1UEBhMCQlIx
CzAJBgNVBAgTAlNQMREwDwYDVQQHEwhTYW9QYXVsbzEQMA4GA1UEChMHYXJjc3Zw
bjEdMBsGA1UECxMUTXlPcmdhbml6YXRpb25hbFVuaXQxHTAbBgNVBAMTFGFyY3N2
cG4uY2xvdWRhcHAubmV0MRAwDgYDVQQpEwdFYXN5UlNBMSEwHwYJKoZIhvcNAQkB
FhJtZUBteWhvc3QubXlkb21haW4wHhcNMTMxMTEwMDM1NjE2WhcNMjMxMTA4MDM1
NjE2WjCBsjELMAkGA1UEBhMCQlIxCzAJBgNVBAgTAlNQMREwDwYDVQQHEwhTYW9Q
YXVsbzEQMA4GA1UEChMHYXJjc3ZwbjEdMBsGA1UECxMUTXlPcmdhbml6YXRpb25h
bFVuaXQxHTAbBgNVBAMTFGFyY3N2cG4uY2xvdWRhcHAubmV0MRAwDgYDVQQpEwdF
YXN5UlNBMSEwHwYJKoZIhvcNAQkBFhJtZUBteWhvc3QubXlkb21haW4wggEiMA0G
CSqGSIb3DQEBAQUAA4IBDwAwggEKAoIBAQDeH4SRc8f2nMzA1ZlZJYZHjvfQO5KF
ARn3xIMungCEsFn3uy0nuEYXpU68gBmIg0n3/jHsxOLlUKjlyG8rjVT8K/OhoQyn
5u6/Ml8TNNS3nWj3TEeW04hDnCwggds4aWvxHkojdE9b0tBGN9gqoXwu2tFUssb/
F+G/q6se0E6mJIhNVsBW3wt52RLrBlMfqqaFrTjUvjk11+IM8aRG6QnVQ8Wta1rI
ipfjZkXCykJacMtxa69kHjCL8Of2Vdxm23oqvWI4hXU6wccDILJjnQhsW0oYCB1V
TTePSZuz15VkZxpBMP5du8aBXdUntjrrmvi0Kx3oxbEkgrDB6Efd2YavAgMBAAGj
ggGDMIIBfzAJBgNVHRMEAjAAMBEGCWCGSAGG+EIBAQQEAwIGQDA0BglghkgBhvhC
AQ0EJxYlRWFzeS1SU0EgR2VuZXJhdGVkIFNlcnZlciBDZXJ0aWZpY2F0ZTAdBgNV
HQ4EFgQUbLUr4hRrMGhyHJmVICd2OJfGiQkwgecGA1UdIwSB3zCB3IAUHfugyRXP
XIc2YYUR2OPjVhSYW7KhgbikgbUwgbIxCzAJBgNVBAYTAkJSMQswCQYDVQQIEwJT
UDERMA8GA1UEBxMIU2FvUGF1bG8xEDAOBgNVBAoTB2FyY3N2cG4xHTAbBgNVBAsT
FE15T3JnYW5pemF0aW9uYWxVbml0MR0wGwYDVQQDExRhcmNzdnBuLmNsb3VkYXBw
Lm5ldDEQMA4GA1UEKRMHRWFzeVJTQTEhMB8GCSqGSIb3DQEJARYSbWVAbXlob3N0
Lm15ZG9tYWluggkAqbtVhfidbkcwEwYDVR0lBAwwCgYIKwYBBQUHAwEwCwYDVR0P
BAQDAgWgMA0GCSqGSIb3DQEBCwUAA4IBAQBY6ALxf3xV4/1dV0yr5L6+nXHFLhlJ
h6Hv9dAxhvgo7iJTvgsh01Jr4j7g1S05mlr/1BqknZ/ER7A7GgAfWomM9Ylgny0m
JqrdoRMypnP1YxshDT3IJK0FicovJLBxR8/+S827Sbfsff2EGFgtacQ6RRzi2asb
XcE3TEFTcWhK/Lyx/n/xBzVHZsvF7Mi6e0CCfplpGJiacCKaivGpkbTx92cUVy67
ruuR1rmjeMzXt310KPyrLywafth4E5b2Z3oVpgGi6KDkrKVDqAFps/WNIFemOJsw
yhZ0iEnsJdv/htTzABsx9Vt6mMmB+uAhPHpGNUFCL4ClQrO8ONkE/Ix9
-----END CERTIFICATE-----
