Certificate:
    Data:
        Version: 3 (0x2)
        Serial Number: 2 (0x2)
    Signature Algorithm: sha256WithRSAEncryption
        Issuer: C=BR, ST=SP, L=SaoPaulo, O=arcsvpn, OU=MyOrganizationalUnit, CN=arcsvpn CA/name=EasyRSA/emailAddress=me@myhost.mydomain
        Validity
            Not Before: Nov 10 02:39:15 2013 GMT
            Not After : Nov  8 02:39:15 2023 GMT
        Subject: C=BR, ST=SP, L=SaoPaulo, O=arcsvpn, OU=MyOrganizationalUnit, CN=client1/name=EasyRSA/emailAddress=me@myhost.mydomain
        Subject Public Key Info:
            Public Key Algorithm: rsaEncryption
                Public-Key: (2048 bit)
                Modulus:
                    00:d4:6a:ad:d5:c3:61:d1:ad:ac:cd:51:c7:82:7e:
                    14:22:e0:7d:8e:2e:93:db:36:43:e1:04:cf:a0:25:
                    c6:ed:dd:27:b7:b1:d5:e1:a2:cc:31:88:f9:14:8a:
                    f7:0b:3d:bf:67:81:98:78:ba:24:ce:f9:c2:d4:10:
                    34:c1:42:b9:f4:44:cf:28:94:3b:c2:8b:a9:35:5d:
                    27:37:a4:c0:d4:e5:ca:1a:49:f4:41:85:1e:ba:3e:
                    51:f1:f5:f5:5c:a5:2e:70:b0:8e:8b:2b:66:5a:8a:
                    18:04:56:67:37:f1:a0:23:23:31:49:0f:6b:cc:2c:
                    c0:12:e7:e8:d5:38:04:02:27:1c:0a:06:b2:8d:a3:
                    7b:79:84:53:eb:89:3b:41:82:62:da:c3:a0:08:a4:
                    b6:5f:19:98:4d:1b:77:ca:05:d9:53:41:c4:3d:d1:
                    bb:2b:83:d8:ec:8d:88:9a:e7:92:7a:44:0c:57:f8:
                    1a:74:f3:71:39:b6:ab:01:4f:fe:e5:ee:f4:8a:c6:
                    71:30:e6:77:a6:66:2c:27:bb:f4:d6:2e:13:b7:04:
                    8a:b9:82:e1:da:96:98:00:6f:8a:e3:fb:a3:10:bf:
                    94:d6:74:05:1c:99:9d:96:40:70:00:94:d6:fe:f7:
                    9a:c1:fd:8f:e3:e8:c5:af:e8:81:4a:b2:e4:0d:80:
                    10:e5
                Exponent: 65537 (0x10001)
        X509v3 extensions:
            X509v3 Basic Constraints: 
                CA:FALSE
            Netscape Comment: 
                Easy-RSA Generated Certificate
            X509v3 Subject Key Identifier: 
                AE:D8:23:EB:76:A7:F6:AC:74:ED:A3:2B:3B:D5:94:08:6B:06:4E:7A
            X509v3 Authority Key Identifier: 
                keyid:98:6B:98:4C:06:98:0F:23:FE:DF:F3:EF:71:FA:4C:31:47:2E:DC:B7
                DirName:/C=BR/ST=SP/L=SaoPaulo/O=arcsvpn/OU=MyOrganizationalUnit/CN=arcsvpn CA/name=EasyRSA/emailAddress=me@myhost.mydomain
                serial:F2:77:AE:8D:E0:27:21:39

            X509v3 Extended Key Usage: 
                TLS Web Client Authentication
            X509v3 Key Usage: 
                Digital Signature
    Signature Algorithm: sha256WithRSAEncryption
         68:63:bf:a8:e9:bb:19:78:1a:36:6e:48:60:0a:cb:e5:b3:7d:
         db:19:c5:c4:cb:92:fb:10:35:00:9d:68:93:2b:91:86:70:72:
         86:36:8f:14:a0:83:4a:52:08:13:18:58:31:24:db:36:f3:e2:
         ee:11:a5:51:1c:69:a3:04:1c:5e:22:90:c5:43:5a:66:a0:2c:
         69:f2:30:99:62:c5:0f:f7:5e:5c:83:49:3a:4e:b0:18:93:5b:
         d9:ac:42:90:0c:68:37:54:18:b5:1c:65:96:2a:e5:da:32:bf:
         9f:0c:64:c0:46:dc:3e:9e:c0:03:4e:b3:bb:72:b4:e5:ab:a0:
         37:d2:89:90:bd:c5:3f:30:c9:3c:73:d4:6c:14:dc:7c:14:65:
         b2:86:e5:05:e0:eb:06:a9:22:bb:15:c0:11:11:19:8a:b1:6a:
         07:08:86:f7:f0:a7:3c:a6:66:be:40:32:01:b1:36:6c:ed:12:
         eb:c7:1c:3a:e4:57:b7:fb:e0:1e:d8:bf:63:a0:1c:a1:eb:8a:
         32:02:43:ba:1b:cc:9f:69:f0:74:fe:d7:22:6e:f9:64:af:23:
         81:83:60:44:4a:df:45:c1:b9:71:7a:50:e4:61:30:d7:95:87:
         d7:50:c8:4f:8b:3b:9a:69:dc:ce:8a:8f:77:b8:b2:0d:e1:2d:
         03:11:87:f3
-----BEGIN CERTIFICATE-----
MIIFKzCCBBOgAwIBAgIBAjANBgkqhkiG9w0BAQsFADCBqDELMAkGA1UEBhMCQlIx
CzAJBgNVBAgTAlNQMREwDwYDVQQHEwhTYW9QYXVsbzEQMA4GA1UEChMHYXJjc3Zw
bjEdMBsGA1UECxMUTXlPcmdhbml6YXRpb25hbFVuaXQxEzARBgNVBAMTCmFyY3N2
cG4gQ0ExEDAOBgNVBCkTB0Vhc3lSU0ExITAfBgkqhkiG9w0BCQEWEm1lQG15aG9z
dC5teWRvbWFpbjAeFw0xMzExMTAwMjM5MTVaFw0yMzExMDgwMjM5MTVaMIGlMQsw
CQYDVQQGEwJCUjELMAkGA1UECBMCU1AxETAPBgNVBAcTCFNhb1BhdWxvMRAwDgYD
VQQKEwdhcmNzdnBuMR0wGwYDVQQLExRNeU9yZ2FuaXphdGlvbmFsVW5pdDEQMA4G
A1UEAxMHY2xpZW50MTEQMA4GA1UEKRMHRWFzeVJTQTEhMB8GCSqGSIb3DQEJARYS
bWVAbXlob3N0Lm15ZG9tYWluMIIBIjANBgkqhkiG9w0BAQEFAAOCAQ8AMIIBCgKC
AQEA1Gqt1cNh0a2szVHHgn4UIuB9ji6T2zZD4QTPoCXG7d0nt7HV4aLMMYj5FIr3
Cz2/Z4GYeLokzvnC1BA0wUK59ETPKJQ7woupNV0nN6TA1OXKGkn0QYUeuj5R8fX1
XKUucLCOiytmWooYBFZnN/GgIyMxSQ9rzCzAEufo1TgEAiccCgayjaN7eYRT64k7
QYJi2sOgCKS2XxmYTRt3ygXZU0HEPdG7K4PY7I2ImueSekQMV/gadPNxObarAU/+
5e70isZxMOZ3pmYsJ7v01i4TtwSKuYLh2paYAG+K4/ujEL+U1nQFHJmdlkBwAJTW
/veawf2P4+jFr+iBSrLkDYAQ5QIDAQABo4IBXzCCAVswCQYDVR0TBAIwADAtBglg
hkgBhvhCAQ0EIBYeRWFzeS1SU0EgR2VuZXJhdGVkIENlcnRpZmljYXRlMB0GA1Ud
DgQWBBSu2CPrdqf2rHTtoys71ZQIawZOejCB3QYDVR0jBIHVMIHSgBSYa5hMBpgP
I/7f8+9x+kwxRy7ct6GBrqSBqzCBqDELMAkGA1UEBhMCQlIxCzAJBgNVBAgTAlNQ
MREwDwYDVQQHEwhTYW9QYXVsbzEQMA4GA1UEChMHYXJjc3ZwbjEdMBsGA1UECxMU
TXlPcmdhbml6YXRpb25hbFVuaXQxEzARBgNVBAMTCmFyY3N2cG4gQ0ExEDAOBgNV
BCkTB0Vhc3lSU0ExITAfBgkqhkiG9w0BCQEWEm1lQG15aG9zdC5teWRvbWFpboIJ
APJ3ro3gJyE5MBMGA1UdJQQMMAoGCCsGAQUFBwMCMAsGA1UdDwQEAwIHgDANBgkq
hkiG9w0BAQsFAAOCAQEAaGO/qOm7GXgaNm5IYArL5bN92xnFxMuS+xA1AJ1okyuR
hnByhjaPFKCDSlIIExhYMSTbNvPi7hGlURxpowQcXiKQxUNaZqAsafIwmWLFD/de
XINJOk6wGJNb2axCkAxoN1QYtRxllirl2jK/nwxkwEbcPp7AA06zu3K05augN9KJ
kL3FPzDJPHPUbBTcfBRlsoblBeDrBqkiuxXAEREZirFqBwiG9/CnPKZmvkAyAbE2
bO0S68ccOuRXt/vgHti/Y6AcoeuKMgJDuhvMn2nwdP7XIm75ZK8jgYNgRErfRcG5
cXpQ5GEw15WH11DIT4s7mmnczoqPd7iyDeEtAxGH8w==
-----END CERTIFICATE-----
