Certificate:
    Data:
        Version: 3 (0x2)
        Serial Number: 1 (0x1)
    Signature Algorithm: sha256WithRSAEncryption
        Issuer: C=BR, ST=SP, L=SaoPaulo, O=arcsvpn, OU=MyOrganizationalUnit, CN=arcsvpn CA/name=EasyRSA/emailAddress=me@myhost.mydomain
        Validity
            Not Before: Nov 10 02:38:10 2013 GMT
            Not After : Nov  8 02:38:10 2023 GMT
        Subject: C=BR, ST=SP, L=SaoPaulo, O=arcsvpn, OU=MyOrganizationalUnit, CN=server/name=EasyRSA/emailAddress=me@myhost.mydomain
        Subject Public Key Info:
            Public Key Algorithm: rsaEncryption
                Public-Key: (2048 bit)
                Modulus:
                    00:a9:b8:de:1e:06:08:62:65:17:4b:d1:68:42:12:
                    06:6d:b6:7c:80:93:ee:be:25:4e:4c:e3:a8:3b:5d:
                    4f:77:88:2f:48:c0:6b:f5:7d:63:01:a6:a5:1b:10:
                    04:43:bd:91:f8:20:fb:20:be:89:ca:a5:b3:40:44:
                    38:8b:57:10:8c:4a:e4:12:91:e5:bd:94:21:62:28:
                    18:b1:2c:6d:22:54:fa:69:f9:7d:f9:50:93:bc:09:
                    56:0c:f8:7e:ac:50:e2:cd:e4:61:d9:68:0d:1f:3b:
                    70:b1:b1:d0:52:f1:26:35:0c:ec:8a:28:c8:eb:3b:
                    32:b8:4e:ac:48:09:51:34:b8:a8:b2:eb:b6:62:72:
                    51:c1:b8:3f:52:92:76:4f:0b:39:23:e3:02:e3:9b:
                    3b:3b:9d:db:af:fe:9e:07:82:fd:39:d1:66:45:10:
                    5c:da:7a:04:1d:39:b0:b6:f6:f1:57:92:cb:c3:59:
                    f1:bd:56:77:be:10:0b:66:6f:2b:0b:ca:8d:94:3c:
                    2e:23:af:d9:c4:01:4f:ca:62:2e:db:62:19:06:0d:
                    d6:dc:32:8d:e2:3f:20:9b:0f:1f:08:3b:42:99:6d:
                    ad:5f:d3:87:3e:86:04:38:25:86:96:48:09:d4:90:
                    41:bf:39:8f:8b:c0:6d:ee:ea:8a:f2:77:67:aa:4f:
                    51:49
                Exponent: 65537 (0x10001)
        X509v3 extensions:
            X509v3 Basic Constraints: 
                CA:FALSE
            Netscape Cert Type: 
                SSL Server
            Netscape Comment: 
                Easy-RSA Generated Server Certificate
            X509v3 Subject Key Identifier: 
                37:27:C3:94:34:9B:0E:78:44:61:C6:0A:29:03:FF:78:89:5D:EA:4A
            X509v3 Authority Key Identifier: 
                keyid:98:6B:98:4C:06:98:0F:23:FE:DF:F3:EF:71:FA:4C:31:47:2E:DC:B7
                DirName:/C=BR/ST=SP/L=SaoPaulo/O=arcsvpn/OU=MyOrganizationalUnit/CN=arcsvpn CA/name=EasyRSA/emailAddress=me@myhost.mydomain
                serial:F2:77:AE:8D:E0:27:21:39

            X509v3 Extended Key Usage: 
                TLS Web Server Authentication
            X509v3 Key Usage: 
                Digital Signature, Key Encipherment
    Signature Algorithm: sha256WithRSAEncryption
         4b:d2:71:91:75:06:3a:8a:54:1c:f0:b8:7a:15:05:7c:5e:4b:
         25:68:f7:8f:ae:17:fb:f8:01:a7:15:3d:48:4d:00:6f:49:c2:
         0e:97:f1:9a:be:b7:ef:3b:b9:e8:0b:43:14:3f:73:a8:92:7a:
         33:92:7b:fc:24:2f:82:28:c7:ef:a7:09:03:fa:62:58:f1:a2:
         64:08:25:34:9f:2d:23:1f:02:f2:d3:41:c3:b2:9b:f9:33:81:
         ee:23:93:36:70:c0:58:bd:42:86:63:a9:ee:64:64:d9:b2:f6:
         fb:d3:37:3c:97:4a:59:b5:fb:8c:16:83:58:f7:7c:25:30:50:
         5b:9b:49:7a:d4:b9:bd:8a:6b:83:df:fa:ff:38:31:95:56:85:
         ff:06:ed:b5:42:87:87:56:05:be:21:3c:21:ea:9a:2e:9b:85:
         fa:bc:fa:8a:46:2c:c8:3a:87:6b:66:52:a8:0d:80:2a:6e:77:
         66:8c:64:db:68:f8:35:44:74:56:64:1f:97:33:1d:09:37:8e:
         28:5b:ef:02:94:c9:5b:09:10:7b:6d:64:7c:3d:3f:f7:fd:a6:
         44:ed:4a:e0:64:9d:90:11:3a:76:23:39:17:ed:e2:52:69:18:
         7e:d7:62:a9:65:20:47:aa:50:9d:c1:27:9c:44:d3:86:45:dd:
         ee:9e:05:cb
-----BEGIN CERTIFICATE-----
MIIFRDCCBCygAwIBAgIBATANBgkqhkiG9w0BAQsFADCBqDELMAkGA1UEBhMCQlIx
CzAJBgNVBAgTAlNQMREwDwYDVQQHEwhTYW9QYXVsbzEQMA4GA1UEChMHYXJjc3Zw
bjEdMBsGA1UECxMUTXlPcmdhbml6YXRpb25hbFVuaXQxEzARBgNVBAMTCmFyY3N2
cG4gQ0ExEDAOBgNVBCkTB0Vhc3lSU0ExITAfBgkqhkiG9w0BCQEWEm1lQG15aG9z
dC5teWRvbWFpbjAeFw0xMzExMTAwMjM4MTBaFw0yMzExMDgwMjM4MTBaMIGkMQsw
CQYDVQQGEwJCUjELMAkGA1UECBMCU1AxETAPBgNVBAcTCFNhb1BhdWxvMRAwDgYD
VQQKEwdhcmNzdnBuMR0wGwYDVQQLExRNeU9yZ2FuaXphdGlvbmFsVW5pdDEPMA0G
A1UEAxMGc2VydmVyMRAwDgYDVQQpEwdFYXN5UlNBMSEwHwYJKoZIhvcNAQkBFhJt
ZUBteWhvc3QubXlkb21haW4wggEiMA0GCSqGSIb3DQEBAQUAA4IBDwAwggEKAoIB
AQCpuN4eBghiZRdL0WhCEgZttnyAk+6+JU5M46g7XU93iC9IwGv1fWMBpqUbEARD
vZH4IPsgvonKpbNARDiLVxCMSuQSkeW9lCFiKBixLG0iVPpp+X35UJO8CVYM+H6s
UOLN5GHZaA0fO3CxsdBS8SY1DOyKKMjrOzK4TqxICVE0uKiy67ZiclHBuD9SknZP
Czkj4wLjmzs7nduv/p4Hgv050WZFEFzaegQdObC29vFXksvDWfG9Vne+EAtmbysL
yo2UPC4jr9nEAU/KYi7bYhkGDdbcMo3iPyCbDx8IO0KZba1f04c+hgQ4JYaWSAnU
kEG/OY+LwG3u6oryd2eqT1FJAgMBAAGjggF5MIIBdTAJBgNVHRMEAjAAMBEGCWCG
SAGG+EIBAQQEAwIGQDA0BglghkgBhvhCAQ0EJxYlRWFzeS1SU0EgR2VuZXJhdGVk
IFNlcnZlciBDZXJ0aWZpY2F0ZTAdBgNVHQ4EFgQUNyfDlDSbDnhEYcYKKQP/eIld
6kowgd0GA1UdIwSB1TCB0oAUmGuYTAaYDyP+3/PvcfpMMUcu3Lehga6kgaswgagx
CzAJBgNVBAYTAkJSMQswCQYDVQQIEwJTUDERMA8GA1UEBxMIU2FvUGF1bG8xEDAO
BgNVBAoTB2FyY3N2cG4xHTAbBgNVBAsTFE15T3JnYW5pemF0aW9uYWxVbml0MRMw
EQYDVQQDEwphcmNzdnBuIENBMRAwDgYDVQQpEwdFYXN5UlNBMSEwHwYJKoZIhvcN
AQkBFhJtZUBteWhvc3QubXlkb21haW6CCQDyd66N4CchOTATBgNVHSUEDDAKBggr
BgEFBQcDATALBgNVHQ8EBAMCBaAwDQYJKoZIhvcNAQELBQADggEBAEvScZF1BjqK
VBzwuHoVBXxeSyVo94+uF/v4AacVPUhNAG9Jwg6X8Zq+t+87uegLQxQ/c6iSejOS
e/wkL4Iox++nCQP6YljxomQIJTSfLSMfAvLTQcOym/kzge4jkzZwwFi9QoZjqe5k
ZNmy9vvTNzyXSlm1+4wWg1j3fCUwUFubSXrUub2Ka4Pf+v84MZVWhf8G7bVCh4dW
Bb4hPCHqmi6bhfq8+opGLMg6h2tmUqgNgCpud2aMZNto+DVEdFZkH5czHQk3jihb
7wKUyVsJEHttZHw9P/f9pkTtSuBknZAROnYjORft4lJpGH7XYqllIEeqUJ3BJ5xE
04ZF3e6eBcs=
-----END CERTIFICATE-----
